target datalayout = "e-m:e-p270:32:32-p271:32:32-p272:64:64-i64:64-i128:128-f80:128-n8:16:32:64-S128"
target triple = "x86_64-pc-linux-gnu"

%struct.mpd_spec_t = type { i64, i64, i8, i8, i8, [5 x i8], ptr, ptr, ptr }

; Function Attrs: nounwind uwtable
define hidden i32 @mpd_validate_lconv(ptr noundef %0) #0 {
  %2 = alloca i32, align 4
  %3 = alloca ptr, align 8
  %4 = alloca i64, align 8
  %5 = alloca ptr, align 8
  %6 = alloca i32, align 4
  store ptr %0, ptr %3, align 8, !tbaa !45
  call void @llvm.lifetime.start.p0(i64 8, ptr %4) #10
  call void @llvm.lifetime.start.p0(i64 8, ptr %5) #10
  %7 = load ptr, ptr %3, align 8, !tbaa !45
  %8 = getelementptr inbounds nuw %struct.mpd_spec_t, ptr %7, i32 0, i32 8
  %9 = load ptr, ptr %8, align 8, !tbaa !47
  store ptr %9, ptr %5, align 8, !tbaa !8
  br label %10

10:                                               ; preds = %22, %1
  %11 = load ptr, ptr %5, align 8, !tbaa !8
  %12 = load i8, ptr %11, align 1, !tbaa !14
  %13 = sext i8 %12 to i32
  %14 = icmp ne i32 %13, 0
  br i1 %14, label %15, label %23

15:                                               ; preds = %10
  %16 = load ptr, ptr %5, align 8, !tbaa !8
  %17 = getelementptr i8, ptr %16, i32 1
  store ptr %17, ptr %5, align 8, !tbaa !8
  %18 = load i8, ptr %16, align 1, !tbaa !14
  %19 = sext i8 %18 to i32
  %20 = icmp slt i32 %19, 0
  br i1 %20, label %21, label %22

21:                                               ; preds = %15
  store i32 -1, ptr %2, align 4
  store i32 1, ptr %6, align 4
  br label %42

22:                                               ; preds = %15
  br label %10, !llvm.loop !49

23:                                               ; preds = %10
  %24 = load ptr, ptr %3, align 8, !tbaa !45
  %25 = getelementptr inbounds nuw %struct.mpd_spec_t, ptr %24, i32 0, i32 6
  %26 = load ptr, ptr %25, align 8, !tbaa !50
  %27 = call i64 @strlen(ptr noundef %26) #13
  store i64 %27, ptr %4, align 8, !tbaa !20
  %28 = load i64, ptr %4, align 8, !tbaa !20
  %29 = icmp eq i64 %28, 0
  br i1 %29, label %33, label %30

30:                                               ; preds = %23
  %31 = load i64, ptr %4, align 8, !tbaa !20
  %32 = icmp ugt i64 %31, 4
  br i1 %32, label %33, label %34

33:                                               ; preds = %30, %23
  store i32 -1, ptr %2, align 4
  store i32 1, ptr %6, align 4
  br label %42

34:                                               ; preds = %30
  %35 = load ptr, ptr %3, align 8, !tbaa !45
  %36 = getelementptr inbounds nuw %struct.mpd_spec_t, ptr %35, i32 0, i32 7
  %37 = load ptr, ptr %36, align 8, !tbaa !51
  %38 = call i64 @strlen(ptr noundef %37) #13
  %39 = icmp ugt i64 %38, 4
  br i1 %39, label %40, label %41

40:                                               ; preds = %34
  store i32 -1, ptr %2, align 4
  store i32 1, ptr %6, align 4
  br label %42

41:                                               ; preds = %34
  store i32 0, ptr %2, align 4
  store i32 1, ptr %6, align 4
  br label %42

42:                                               ; preds = %41, %40, %33, %21
  call void @llvm.lifetime.end.p0(i64 8, ptr %5) #10
  call void @llvm.lifetime.end.p0(i64 8, ptr %4) #10
  %43 = load i32, ptr %2, align 4
  ret i32 %43
}