; Function Attrs: nofree nounwind memory(read, inaccessiblemem: none) uwtable
define hidden range(i32 -1, 1) i32 @mpd_validate_lconv(ptr noundef readonly captures(none) %0) local_unnamed_addr #4 {
  %2 = getelementptr inbounds nuw i8, ptr %0, i64 40
  %3 = load ptr, ptr %2, align 8, !tbaa !37
  br label %4

4:                                                ; preds = %6, %1
  %.0 = phi ptr [ %3, %1 ], [ %7, %6 ]
  %5 = load i8, ptr %.0, align 1, !tbaa !11
  %.not = icmp eq i8 %5, 0
  br i1 %.not, label %9, label %6

6:                                                ; preds = %4
  %7 = getelementptr i8, ptr %.0, i64 1
  %8 = icmp slt i8 %5, 0
  br i1 %8, label %.loopexit, label %4, !llvm.loop !39

9:                                                ; preds = %4
  %10 = getelementptr inbounds nuw i8, ptr %0, i64 24
  %11 = load ptr, ptr %10, align 8, !tbaa !40
  %12 = tail call i64 @strlen(ptr noundef nonnull dereferenceable(1) %11) #21
  %13 = add i64 %12, -5
  %or.cond = icmp ult i64 %13, -4
  br i1 %or.cond, label %.loopexit, label %14

14:                                               ; preds = %9
  %15 = getelementptr inbounds nuw i8, ptr %0, i64 32
  %16 = load ptr, ptr %15, align 8, !tbaa !41
  %17 = tail call i64 @strlen(ptr noundef nonnull dereferenceable(1) %16) #21
  %18 = icmp ugt i64 %17, 4
  %. = sext i1 %18 to i32
  br label %.loopexit

.loopexit:                                        ; preds = %6, %14, %9
  %.08 = phi i32 [ -1, %9 ], [ %., %14 ], [ -1, %6 ]
  ret i32 %.08
}